; Function Attrs: nounwind uwtable
define dso_local void @lua_pushnumber(ptr noundef %0, double noundef %1) local_unnamed_addr #1 {
  %3 = getelementptr inbounds nuw i8, ptr %0, i64 40
  %4 = load ptr, ptr %3, align 8, !tbaa !14
  store double %1, ptr %4, align 8, !tbaa !17
  %5 = load ptr, ptr %3, align 8, !tbaa !14
  %6 = load double, ptr %5, align 8, !tbaa !17
  %7 = fcmp uno double %6, 0.000000e+00
  br i1 %7, label %8, label %9, !prof !44

8:                                                ; preds = %2
  store i64 -2251799813685248, ptr %5, align 8, !tbaa !17
  %.pre = load ptr, ptr %3, align 8, !tbaa !14
  br label %9

9:                                                ; preds = %8, %2
  %10 = phi ptr [ %.pre, %8 ], [ %5, %2 ]
  %11 = getelementptr inbounds nuw i8, ptr %10, i64 8
  store ptr %11, ptr %3, align 8, !tbaa !14
  %12 = getelementptr inbounds nuw i8, ptr %0, i64 48
  %13 = load i64, ptr %12, align 8, !tbaa !16
  %14 = inttoptr i64 %13 to ptr
  %.not = icmp ult ptr %11, %14
  br i1 %.not, label %16, label %15

15:                                               ; preds = %9
  tail call void @lj_state_growstack1(ptr noundef nonnull %0) #13
  br label %16

16:                                               ; preds = %15, %9
  ret void
}